; Function Attrs: nounwind uwtable
define void @Abc_ObjReplaceByConstant(ptr noundef %0, i32 noundef %1) local_unnamed_addr #0 {
  %.not = icmp eq i32 %1, 0
  %3 = load ptr, ptr %0, align 8
  br i1 %.not, label %6, label %4

4:                                                ; preds = %2
  %5 = tail call ptr @Abc_NtkCreateNodeConst1(ptr noundef %3) #8
  br label %8

6:                                                ; preds = %2
  %7 = tail call ptr @Abc_NtkCreateNodeConst0(ptr noundef %3) #8
  br label %8

8:                                                ; preds = %6, %4
  %9 = phi ptr [ %5, %4 ], [ %7, %6 ]
  tail call void @Abc_ObjTransferFanout(ptr noundef nonnull %0, ptr noundef %9)
  %10 = getelementptr i8, ptr %0, i64 20
  %.val = load i32, ptr %10, align 4
  %11 = and i32 %.val, 15
  %.not7 = icmp eq i32 %11, 7
  br i1 %.not7, label %12, label %13

12:                                               ; preds = %8
  tail call void @Abc_NtkDeleteObj_rec(ptr noundef nonnull %0, i32 noundef 1) #8
  br label %13

13:                                               ; preds = %12, %8
  ret void
}